(dp0
S'METTS MARK'
p1
(dp2
S'to_messages'
p3
I807
sS'deferral_payments'
p4
S'NaN'
p5
sS'expenses'
p6
I94299
sS'poi'
p7
I00
sS'deferred_income'
p8
g5
sS'email_address'
p9
S'mark.metts@enron.com'
p10
sS'from_poi_to_this_person'
p11
I38
sS'restricted_stock_deferred'
p12
g5
sS'shared_receipt_with_poi'
p13
I702
sS'loan_advances'
p14
g5
sS'from_messages'
p15
I29
sS'other'
p16
I1740
sS'director_fees'
p17
g5
sS'bonus'
p18
I600000
sS'total_stock_value'
p19
I585062
sS'from_this_person_to_poi'
p20
I1
sS'long_term_incentive'
p21
g5
sS'restricted_stock'
p22
I585062
sS'salary'
p23
I365788
sS'total_payments'
p24
I1061827
sS'exercised_stock_options'
p25
g5
sS'mentions'
p26
I1
ssS'BAXTER JOHN C'
p27
(dp28
g3
g5
sg4
I1295738
sg6
I11200
sg7
I00
sg8
I-1386055
sg9
g5
sg11
g5
sg12
g5
sg13
g5
sg14
g5
sg15
g5
sg16
I2660303
sg17
g5
sg18
I1200000
sg19
I10623258
sg20
g5
sg21
I1586055
sg22
I3942714
sg23
I267102
sg24
I5634343
sg25
I6680544
sg26
I0
ssS'ELLIOTT STEVEN'
p29
(dp30
g3
g5
sg4
g5
sg6
I78552
sg7
I00
sg8
I-400729
sg9
S'steven.elliott@enron.com'
p31
sg11
g5
sg12
g5
sg13
g5
sg14
g5
sg15
g5
sg16
I12961
sg17
g5
sg18
I350000
sg19
I6678735
sg20
g5
sg21
g5
sg22
I1788391
sg23
I170941
sg24
I211725
sg25
I4890344
sg26
I0
ssS'CORDES WILLIAM R'
p32
(dp33
g3
I764
sg4
g5
sg6
g5
sg7
I00
sg8
g5
sg9
S'bill.cordes@enron.com'
p34
sg11
I10
sg12
g5
sg13
I58
sg14
g5
sg15
I12
sg16
g5
sg17
g5
sg18
g5
sg19
I1038185
sg20
I0
sg21
g5
sg22
I386335
sg23
g5
sg24
g5
sg25
I651850
sg26
I0
ssS'HANNON KEVIN P'
p35
(dp36
g3
I1045
sg4
g5
sg6
I34039
sg7
I01
sg8
I-3117011
sg9
S'kevin.hannon@enron.com'
p37
sg11
I32
sg12
g5
sg13
I1035
sg14
g5
sg15
I32
sg16
I11350
sg17
g5
sg18
I1500000
sg19
I6391065
sg20
I21
sg21
I1617011
sg22
I853064
sg23
I243293
sg24
I288682
sg25
I5538001
sg26
I41
ssS'MORDAUNT KRISTINA M'
p38
(dp39
g3
g5
sg4
g5
sg6
I35018
sg7
I00
sg8
g5
sg9
S'kristina.mordaunt@enron.com'
p40
sg11
g5
sg12
g5
sg13
g5
sg14
g5
sg15
g5
sg16
I1411
sg17
g5
sg18
I325000
sg19
I208510
sg20
g5
sg21
g5
sg22
I208510
sg23
I267093
sg24
I628522
sg25
g5
sg26
I0
ssS'MEYER ROCKFORD G'
p41
(dp42
g3
I232
sg4
I1848227
sg6
g5
sg7
I00
sg8
g5
sg9
S'rockford.meyer@enron.com'
p43
sg11
I0
sg12
g5
sg13
I22
sg14
g5
sg15
I28
sg16
g5
sg17
g5
sg18
g5
sg19
I955873
sg20
I0
sg21
g5
sg22
I462384
sg23
g5
sg24
I1848227
sg25
I493489
sg26
I0
ssS'MCMAHON JEFFREY'
p44
(dp45
g3
I2355
sg4
g5
sg6
I137108
sg7
I00
sg8
g5
sg9
S'jeffrey.mcmahon@enron.com'
p46
sg11
I58
sg12
g5
sg13
I2228
sg14
g5
sg15
I48
sg16
I297353
sg17
g5
sg18
I2600000
sg19
I1662855
sg20
I26
sg21
I694862
sg22
I558801
sg23
I370448
sg24
I4099771
sg25
I1104054
sg26
I22
ssS'HAEDICKE MARK E'
p47
(dp48
g3
I4009
sg4
I2157527
sg6
I76169
sg7
I00
sg8
I-934484
sg9
S'mark.haedicke@enron.com'
p49
sg11
I180
sg12
I-329825
sg13
I1847
sg14
g5
sg15
I1941
sg16
I52382
sg17
g5
sg18
I1150000
sg19
I803094
sg20
I61
sg21
I983346
sg22
I524169
sg23
I374125
sg24
I3859065
sg25
I608750
sg26
I144
ssS'PIPER GREGORY F'
p50
(dp51
g3
I1238
sg4
I1130036
sg6
I43057
sg7
I00
sg8
I-33333
sg9
S'greg.piper@enron.com'
p52
sg11
I61
sg12
I-409554
sg13
I742
sg14
g5
sg15
I222
sg16
I778
sg17
g5
sg18
I400000
sg19
I880290
sg20
I48
sg21
g5
sg22
I409554
sg23
I197091
sg24
I1737629
sg25
I880290
sg26
I27
ssS'HUMPHREY GENE E'
p53
(dp54
g3
I128
sg4
I2964506
sg6
I4994
sg7
I00
sg8
g5
sg9
S'gene.humphrey@enron.com'
p55
sg11
I10
sg12
g5
sg13
I119
sg14
g5
sg15
I17
sg16
g5
sg17
g5
sg18
g5
sg19
I2282768
sg20
I17
sg21
g5
sg22
g5
sg23
I130724
sg24
I3100224
sg25
I2282768
sg26
I0
ssS'NOLES JAMES L'
p56
(dp57
g3
g5
sg4
I774401
sg6
g5
sg7
I00
sg8
g5
sg9
g5
sg11
g5
sg12
I-94556
sg13
g5
sg14
g5
sg15
g5
sg16
g5
sg17
g5
sg18
g5
sg19
I368705
sg20
g5
sg21
g5
sg22
I463261
sg23
g5
sg24
I774401
sg25
g5
sg26
I0
ssS'BLACHMAN JEREMY M'
p58
(dp59
g3
I2475
sg4
g5
sg6
I84208
sg7
I00
sg8
g5
sg9
S'jeremy.blachman@enron.com'
p60
sg11
I25
sg12
g5
sg13
I2326
sg14
g5
sg15
I14
sg16
I272
sg17
g5
sg18
I850000
sg19
I954354
sg20
I2
sg21
I831809
sg22
I189041
sg23
I248546
sg24
I2014835
sg25
I765313
sg26
I3
ssS'SUNDE MARTIN'
p61
(dp62
g3
I2647
sg4
g5
sg6
g5
sg7
I00
sg8
g5
sg9
S'marty.sunde@enron.com'
p63
sg11
I37
sg12
g5
sg13
I2565
sg14
g5
sg15
I38
sg16
I111122
sg17
g5
sg18
I700000
sg19
I698920
sg20
I13
sg21
I476451
sg22
I698920
sg23
I257486
sg24
I1545059
sg25
g5
sg26
I7
ssS'GIBBS DANA R'
p64
(dp65
g3
I169
sg4
I504610
sg6
g5
sg7
I00
sg8
g5
sg9
S'dana.gibbs@enron.com'
p66
sg11
I0
sg12
g5
sg13
I23
sg14
g5
sg15
I12
sg16
g5
sg17
g5
sg18
g5
sg19
I2218275
sg20
I0
sg21
I461912
sg22
g5
sg23
g5
sg24
I966522
sg25
I2218275
sg26
I0
ssS'LOWRY CHARLES P'
p67
(dp68
g3
g5
sg4
g5
sg6
g5
sg7
I00
sg8
g5
sg9
g5
sg11
g5
sg12
I-153686
sg13
g5
sg14
g5
sg15
g5
sg16
g5
sg17
g5
sg18
g5
sg19
I372205
sg20
g5
sg21
g5
sg22
I153686
sg23
g5
sg24
g5
sg25
I372205
sg26
I0
ssS'COLWELL WESLEY'
p69
(dp70
g3
I1758
sg4
I27610
sg6
I16514
sg7
I01
sg8
I-144062
sg9
S'wes.colwell@enron.com'
p71
sg11
I240
sg12
g5
sg13
I1132
sg14
g5
sg15
I40
sg16
I101740
sg17
g5
sg18
I1200000
sg19
I698242
sg20
I11
sg21
g5
sg22
I698242
sg23
I288542
sg24
I1490344
sg25
g5
sg26
I9
ssS'MULLER MARK S'
p72
(dp73
g3
I136
sg4
I842924
sg6
g5
sg7
I00
sg8
I-719000
sg9
S's..muller@enron.com'
p74
sg11
I12
sg12
g5
sg13
I114
sg14
g5
sg15
I16
sg16
I947
sg17
g5
sg18
I1100000
sg19
I1416848
sg20
I0
sg21
I1725545
sg22
I360528
sg23
I251654
sg24
I3202070
sg25
I1056320
sg26
I1
ssS'JACKSON CHARLENE R'
p75
(dp76
g3
I258
sg4
g5
sg6
I10181
sg7
I00
sg8
g5
sg9
S'charlene.jackson@enron.com'
p77
sg11
I25
sg12
g5
sg13
I117
sg14
g5
sg15
I56
sg16
I2435
sg17
g5
sg18
I250000
sg19
I725735
sg20
I19
sg21
g5
sg22
I540672
sg23
I288558
sg24
I551174
sg25
I185063
sg26
I3
ssS'WESTFAHL RICHARD K'
p78
(dp79
g3
g5
sg4
g5
sg6
I51870
sg7
I00
sg8
I-10800
sg9
S'dick.westfahl@enron.com'
p80
sg11
g5
sg12
g5
sg13
g5
sg14
g5
sg15
g5
sg16
I401130
sg17
g5
sg18
g5
sg19
I384930
sg20
g5
sg21
I256191
sg22
I384930
sg23
I63744
sg24
I762135
sg25
g5
sg26
I0
ssS'WALTERS GARETH W'
p81
(dp82
g3
g5
sg4
I53625
sg6
I33785
sg7
I00
sg8
g5
sg9
g5
sg11
g5
sg12
g5
sg13
g5
sg14
g5
sg15
g5
sg16
g5
sg17
g5
sg18
g5
sg19
I1030329
sg20
g5
sg21
g5
sg22
g5
sg23
g5
sg24
I87410
sg25
I1030329
sg26
I0
ssS'WALLS JR ROBERT H'
p83
(dp84
g3
I671
sg4
g5
sg6
I50936
sg7
I00
sg8
g5
sg9
S'rob.walls@enron.com'
p85
sg11
I17
sg12
g5
sg13
I215
sg14
g5
sg15
I146
sg16
I2
sg17
g5
sg18
I850000
sg19
I5898997
sg20
I0
sg21
I540751
sg22
I1552453
sg23
I357091
sg24
I1798780
sg25
I4346544
sg26
I29
ssS'KITCHEN LOUISE'
p86
(dp87
g3
I8305
sg4
g5
sg6
I5774
sg7
I00
sg8
g5
sg9
S'louise.kitchen@enron.com'
p88
sg11
I251
sg12
g5
sg13
I3669
sg14
g5
sg15
I1728
sg16
I93925
sg17
g5
sg18
I3100000
sg19
I547143
sg20
I194
sg21
g5
sg22
I466101
sg23
I271442
sg24
I3471141
sg25
I81042
sg26
I205
ssS'CHAN RONNIE'
p89
(dp90
g3
g5
sg4
g5
sg6
g5
sg7
I00
sg8
I-98784
sg9
g5
sg11
g5
sg12
I-32460
sg13
g5
sg14
g5
sg15
g5
sg16
g5
sg17
I98784
sg18
g5
sg19
g5
sg20
g5
sg21
g5
sg22
I32460
sg23
g5
sg24
g5
sg25
g5
sg26
I0
ssS'BELFER ROBERT'
p91
(dp92
g3
g5
sg4
I-102500
sg6
g5
sg7
I00
sg8
g5
sg9
g5
sg11
g5
sg12
I44093
sg13
g5
sg14
g5
sg15
g5
sg16
g5
sg17
I3285
sg18
g5
sg19
I-44093
sg20
g5
sg21
g5
sg22
g5
sg23
g5
sg24
I102500
sg25
I3285
sg26
I0
ssS'SHANKMAN JEFFREY A'
p93
(dp94
g3
I3221
sg4
g5
sg6
I178979
sg7
I00
sg8
g5
sg9
S'jeffrey.shankman@enron.com'
p95
sg11
I94
sg12
g5
sg13
I1730
sg14
g5
sg15
I2681
sg16
I1191
sg17
g5
sg18
I2000000
sg19
I2072035
sg20
I83
sg21
I554422
sg22
I630137
sg23
I304110
sg24
I3038702
sg25
I1441898
sg26
I619
ssS'WODRASKA JOHN'
p96
(dp97
g3
g5
sg4
g5
sg6
g5
sg7
I00
sg8
g5
sg9
S'john.wodraska@enron.com'
p98
sg11
g5
sg12
g5
sg13
g5
sg14
g5
sg15
g5
sg16
I189583
sg17
g5
sg18
g5
sg19
g5
sg20
g5
sg21
g5
sg22
g5
sg23
g5
sg24
I189583
sg25
g5
sg26
I0
ssS'BERGSIEKER RICHARD P'
p99
(dp100
g3
I383
sg4
g5
sg6
I59175
sg7
I00
sg8
I-485813
sg9
S'rick.bergsieker@enron.com'
p101
sg11
I4
sg12
g5
sg13
I233
sg14
g5
sg15
I59
sg16
I427316
sg17
g5
sg18
I250000
sg19
I659249
sg20
I0
sg21
I180250
sg22
I659249
sg23
I187922
sg24
I618850
sg25
g5
sg26
I4
ssS'URQUHART JOHN A'
p102
(dp103
g3
g5
sg4
g5
sg6
I228656
sg7
I00
sg8
I-36666
sg9
g5
sg11
g5
sg12
g5
sg13
g5
sg14
g5
sg15
g5
sg16
g5
sg17
I36666
sg18
g5
sg19
g5
sg20
g5
sg21
g5
sg22
g5
sg23
g5
sg24
I228656
sg25
g5
sg26
I0
ssS'BIBI PHILIPPE A'
p104
(dp105
g3
I1607
sg4
g5
sg6
I38559
sg7
I00
sg8
g5
sg9
S'philippe.bibi@enron.com'
p106
sg11
I23
sg12
g5
sg13
I1336
sg14
g5
sg15
I40
sg16
I425688
sg17
g5
sg18
I1000000
sg19
I1843816
sg20
I8
sg21
I369721
sg22
I378082
sg23
I213625
sg24
I2047593
sg25
I1465734
sg26
I4
ssS'RIEKER PAULA H'
p107
(dp108
g3
I1328
sg4
I214678
sg6
I33271
sg7
I01
sg8
I-100000
sg9
S'paula.rieker@enron.com'
p109
sg11
I35
sg12
g5
sg13
I1258
sg14
g5
sg15
I82
sg16
I1950
sg17
g5
sg18
I700000
sg19
I1918887
sg20
I48
sg21
g5
sg22
I283649
sg23
I249201
sg24
I1099100
sg25
I1635238
sg26
I18
ssS'WHALEY DAVID A'
p110
(dp111
g3
g5
sg4
g5
sg6
g5
sg7
I00
sg8
g5
sg9
g5
sg11
g5
sg12
g5
sg13
g5
sg14
g5
sg15
g5
sg16
g5
sg17
g5
sg18
g5
sg19
I98718
sg20
g5
sg21
g5
sg22
g5
sg23
g5
sg24
g5
sg25
I98718
sg26
I0
ssS'BECK SALLY W'
p112
(dp113
g3
I7315
sg4
g5
sg6
I37172
sg7
I00
sg8
g5
sg9
S'sally.beck@enron.com'
p114
sg11
I144
sg12
g5
sg13
I2639
sg14
g5
sg15
I4343
sg16
I566
sg17
g5
sg18
I700000
sg19
I126027
sg20
I386
sg21
g5
sg22
I126027
sg23
I231330
sg24
I969068
sg25
g5
sg26
I597
ssS'HAUG DAVID L'
p115
(dp116
g3
I573
sg4
g5
sg6
I475
sg7
I00
sg8
g5
sg9
S'david.haug@enron.com'
p117
sg11
I4
sg12
g5
sg13
I471
sg14
g5
sg15
I19
sg16
g5
sg17
g5
sg18
g5
sg19
I2217299
sg20
I7
sg21
g5
sg22
I2217299
sg23
g5
sg24
I475
sg25
g5
sg26
I45
ssS'ECHOLS JOHN B'
p118
(dp119
g3
g5
sg4
g5
sg6
I21530
sg7
I00
sg8
g5
sg9
S'john.echols@enron.com'
p120
sg11
g5
sg12
g5
sg13
g5
sg14
g5
sg15
g5
sg16
I53775
sg17
g5
sg18
I200000
sg19
I1008941
sg20
g5
sg21
I2234774
sg22
I407503
sg23
I182245
sg24
I2692324
sg25
I601438
sg26
I0
ssS'MENDELSOHN JOHN'
p121
(dp122
g3
g5
sg4
g5
sg6
I148
sg7
I00
sg8
I-103750
sg9
g5
sg11
g5
sg12
g5
sg13
g5
sg14
g5
sg15
g5
sg16
g5
sg17
I103750
sg18
g5
sg19
g5
sg20
g5
sg21
g5
sg22
g5
sg23
g5
sg24
I148
sg25
g5
sg26
I0
ssS'HICKERSON GARY J'
p123
(dp124
g3
I1320
sg4
g5
sg6
I98849
sg7
I00
sg8
g5
sg9
S'gary.hickerson@enron.com'
p125
sg11
I40
sg12
g5
sg13
I900
sg14
g5
sg15
I27
sg16
I1936
sg17
g5
sg18
I1700000
sg19
I441096
sg20
I1
sg21
I69223
sg22
I441096
sg23
I211788
sg24
I2081796
sg25
g5
sg26
I7
ssS'CLINE KENNETH W'
p126
(dp127
g3
g5
sg4
g5
sg6
g5
sg7
I00
sg8
g5
sg9
g5
sg11
g5
sg12
I-472568
sg13
g5
sg14
g5
sg15
g5
sg16
g5
sg17
g5
sg18
g5
sg19
I189518
sg20
g5
sg21
g5
sg22
I662086
sg23
g5
sg24
g5
sg25
g5
sg26
I0
ssS'LEWIS RICHARD'
p128
(dp129
g3
I952
sg4
g5
sg6
g5
sg7
I00
sg8
g5
sg9
S'richard.lewis@enron.com'
p130
sg11
I10
sg12
g5
sg13
I739
sg14
g5
sg15
I26
sg16
g5
sg17
g5
sg18
g5
sg19
I850477
sg20
I0
sg21
g5
sg22
g5
sg23
g5
sg24
g5
sg25
I850477
sg26
I2
ssS'HAYES ROBERT E'
p131
(dp132
g3
I504
sg4
I7961
sg6
g5
sg7
I00
sg8
g5
sg9
S'robert.hayes@enron.com'
p133
sg11
I16
sg12
g5
sg13
I50
sg14
g5
sg15
I12
sg16
g5
sg17
g5
sg18
g5
sg19
I151418
sg20
I0
sg21
g5
sg22
I151418
sg23
g5
sg24
I7961
sg25
g5
sg26
I2
ssS'KOPPER MICHAEL J'
p134
(dp135
g3
g5
sg4
g5
sg6
I118134
sg7
I01
sg8
g5
sg9
S'michael.kopper@enron.com'
p136
sg11
g5
sg12
g5
sg13
g5
sg14
g5
sg15
g5
sg16
I907502
sg17
g5
sg18
I800000
sg19
I985032
sg20
g5
sg21
I602671
sg22
I985032
sg23
I224305
sg24
I2652612
sg25
g5
sg26
I0
ssS'LEFF DANIEL P'
p137
(dp138
g3
I2822
sg4
g5
sg6
g5
sg7
I00
sg8
g5
sg9
S'dan.leff@enron.com'
p139
sg11
I67
sg12
g5
sg13
I2672
sg14
g5
sg15
I63
sg16
I3083
sg17
g5
sg18
I1000000
sg19
I360528
sg20
I14
sg21
I1387399
sg22
I360528
sg23
I273746
sg24
I2664228
sg25
g5
sg26
I14
ssS'LAVORATO JOHN J'
p140
(dp141
g3
I7259
sg4
g5
sg6
I49537
sg7
I00
sg8
g5
sg9
S'john.lavorato@enron.com'
p142
sg11
I528
sg12
g5
sg13
I3962
sg14
g5
sg15
I2585
sg16
I1552
sg17
g5
sg18
I8000000
sg19
I5167144
sg20
I411
sg21
I2035380
sg22
I1008149
sg23
I339288
sg24
I10425757
sg25
I4158995
sg26
I325
ssS'BERBERIAN DAVID'
p143
(dp144
g3
g5
sg4
g5
sg6
I11892
sg7
I00
sg8
g5
sg9
S'david.berberian@enron.com'
p145
sg11
g5
sg12
g5
sg13
g5
sg14
g5
sg15
g5
sg16
g5
sg17
g5
sg18
g5
sg19
I2493616
sg20
g5
sg21
g5
sg22
I869220
sg23
I216582
sg24
I228474
sg25
I1624396
sg26
I0
ssS'DETMERING TIMOTHY J'
p146
(dp147
g3
g5
sg4
I875307
sg6
I52255
sg7
I00
sg8
I-775241
sg9
S'timothy.detmering@enron.com'
p148
sg11
g5
sg12
I-315068
sg13
g5
sg14
g5
sg15
g5
sg16
I1105
sg17
g5
sg18
I425000
sg19
I2027865
sg20
g5
sg21
I415657
sg22
I315068
sg23
I210500
sg24
I1204583
sg25
I2027865
sg26
I0
ssS'WAKEHAM JOHN'
p149
(dp150
g3
g5
sg4
g5
sg6
I103773
sg7
I00
sg8
g5
sg9
g5
sg11
g5
sg12
g5
sg13
g5
sg14
g5
sg15
g5
sg16
g5
sg17
I109298
sg18
g5
sg19
g5
sg20
g5
sg21
g5
sg22
g5
sg23
g5
sg24
I213071
sg25
g5
sg26
I0
ssS'POWERS WILLIAM'
p151
(dp152
g3
I653
sg4
g5
sg6
g5
sg7
I00
sg8
I-17500
sg9
S'ken.powers@enron.com'
p153
sg11
I0
sg12
g5
sg13
I12
sg14
g5
sg15
I26
sg16
g5
sg17
I17500
sg18
g5
sg19
g5
sg20
I0
sg21
g5
sg22
g5
sg23
g5
sg24
g5
sg25
g5
sg26
I0
ssS'GOLD JOSEPH'
p154
(dp155
g3
g5
sg4
g5
sg6
g5
sg7
I00
sg8
g5
sg9
S'joe.gold@enron.com'
p156
sg11
g5
sg12
g5
sg13
g5
sg14
g5
sg15
g5
sg16
I819288
sg17
g5
sg18
I750000
sg19
I877611
sg20
g5
sg21
I304805
sg22
I441096
sg23
I272880
sg24
I2146973
sg25
I436515
sg26
I0
ssS'BANNANTINE JAMES M'
p157
(dp158
g3
I566
sg4
g5
sg6
I56301
sg7
I00
sg8
I-5104
sg9
S'james.bannantine@enron.com'
p159
sg11
I39
sg12
I-560222
sg13
I465
sg14
g5
sg15
I29
sg16
I864523
sg17
g5
sg18
g5
sg19
I5243487
sg20
I0
sg21
g5
sg22
I1757552
sg23
I477
sg24
I916197
sg25
I4046157
sg26
I61
ssS'DUNCAN JOHN H'
p160
(dp161
g3
g5
sg4
g5
sg6
g5
sg7
I00
sg8
I-25000
sg9
g5
sg11
g5
sg12
g5
sg13
g5
sg14
g5
sg15
g5
sg16
g5
sg17
I102492
sg18
g5
sg19
I371750
sg20
g5
sg21
g5
sg22
g5
sg23
g5
sg24
I77492
sg25
I371750
sg26
I0
ssS'SHAPIRO RICHARD S'
p162
(dp163
g3
I15149
sg4
g5
sg6
I137767
sg7
I00
sg8
g5
sg9
S'richard.shapiro@enron.com'
p164
sg11
I74
sg12
g5
sg13
I4527
sg14
g5
sg15
I1215
sg16
I705
sg17
g5
sg18
I650000
sg19
I987001
sg20
I65
sg21
g5
sg22
I379164
sg23
I269076
sg24
I1057548
sg25
I607837
sg26
I130
ssS'SHERRIFF JOHN R'
p165
(dp166
g3
I3187
sg4
g5
sg6
g5
sg7
I00
sg8
g5
sg9
S'john.sherriff@enron.com'
p167
sg11
I28
sg12
g5
sg13
I2103
sg14
g5
sg15
I92
sg16
I1852186
sg17
g5
sg18
I1500000
sg19
I3128982
sg20
I23
sg21
I554422
sg22
I1293424
sg23
I428780
sg24
I4335388
sg25
I1835558
sg26
I12
ssS'SHELBY REX'
p168
(dp169
g3
I225
sg4
g5
sg6
I22884
sg7
I01
sg8
I-4167
sg9
S'rex.shelby@enron.com'
p170
sg11
I13
sg12
g5
sg13
I91
sg14
g5
sg15
I39
sg16
I1573324
sg17
g5
sg18
I200000
sg19
I2493616
sg20
I14
sg21
g5
sg22
I869220
sg23
I211844
sg24
I2003885
sg25
I1624396
sg26
I0
ssS'LEMAISTRE CHARLES'
p171
(dp172
g3
g5
sg4
g5
sg6
g5
sg7
I00
sg8
I-25000
sg9
g5
sg11
g5
sg12
g5
sg13
g5
sg14
g5
sg15
g5
sg16
g5
sg17
I112492
sg18
g5
sg19
I412878
sg20
g5
sg21
g5
sg22
g5
sg23
g5
sg24
I87492
sg25
I412878
sg26
I0
ssS'DEFFNER JOSEPH M'
p173
(dp174
g3
I714
sg4
g5
sg6
I41626
sg7
I00
sg8
g5
sg9
S'joseph.deffner@enron.com'
p175
sg11
I115
sg12
g5
sg13
I552
sg14
g5
sg15
I74
sg16
I25553
sg17
g5
sg18
I600000
sg19
I159211
sg20
I4
sg21
I335349
sg22
I141833
sg23
I206121
sg24
I1208649
sg25
I17378
sg26
I1
ssS'KISHKILL JOSEPH G'
p176
(dp177
g3
g5
sg4
g5
sg6
I116335
sg7
I00
sg8
I-51042
sg9
S'joe.kishkill@enron.com'
p178
sg11
g5
sg12
g5
sg13
g5
sg14
g5
sg15
g5
sg16
I465357
sg17
g5
sg18
g5
sg19
I1034346
sg20
g5
sg21
g5
sg22
I1034346
sg23
I174246
sg24
I704896
sg25
g5
sg26
I0
ssS'WHALLEY LAWRENCE G'
p179
(dp180
g3
I6019
sg4
g5
sg6
I57838
sg7
I00
sg8
g5
sg9
S'greg.whalley@enron.com'
p181
sg11
I186
sg12
g5
sg13
I3920
sg14
g5
sg15
I556
sg16
I301026
sg17
g5
sg18
I3000000
sg19
I6079137
sg20
I24
sg21
I808346
sg22
I2796177
sg23
I510364
sg24
I4677574
sg25
I3282960
sg26
I92
ssS'PIRO JIM'
p182
(dp183
g3
I58
sg4
g5
sg6
g5
sg7
I00
sg8
g5
sg9
S'jim.piro@enron.com'
p184
sg11
I0
sg12
g5
sg13
I3
sg14
g5
sg15
I16
sg16
g5
sg17
g5
sg18
g5
sg19
I47304
sg20
I1
sg21
g5
sg22
I47304
sg23
g5
sg24
g5
sg25
g5
sg26
I0
ssS'MCCONNELL MICHAEL S'
p185
(dp186
g3
I3329
sg4
g5
sg6
I81364
sg7
I00
sg8
g5
sg9
S'mike.mcconnell@enron.com'
p187
sg11
I92
sg12
g5
sg13
I2189
sg14
g5
sg15
I2742
sg16
I540
sg17
g5
sg18
I1100000
sg19
I3101279
sg20
I194
sg21
I554422
sg22
I1478269
sg23
I365038
sg24
I2101364
sg25
I1623010
sg26
I352
ssS'DELAINEY DAVID W'
p188
(dp189
g3
I3093
sg4
g5
sg6
I86174
sg7
I01
sg8
g5
sg9
S'david.delainey@enron.com'
p190
sg11
I66
sg12
g5
sg13
I2097
sg14
g5
sg15
I3069
sg16
I1661
sg17
g5
sg18
I3000000
sg19
I3614261
sg20
I609
sg21
I1294981
sg22
I1323148
sg23
I365163
sg24
I4747979
sg25
I2291113
sg26
I548
ssS'SULLIVAN-SHAKLOVITZ COLLEEN'
p191
(dp192
g3
g5
sg4
I181993
sg6
g5
sg7
I00
sg8
g5
sg9
g5
sg11
g5
sg12
g5
sg13
g5
sg14
g5
sg15
g5
sg16
I162
sg17
g5
sg18
I100000
sg19
I1362375
sg20
g5
sg21
I554422
sg22
g5
sg23
I162779
sg24
I999356
sg25
I1362375
sg26
I0
ssS'WROBEL BRUCE'
p193
(dp194
g3
g5
sg4
g5
sg6
g5
sg7
I00
sg8
g5
sg9
g5
sg11
g5
sg12
g5
sg13
g5
sg14
g5
sg15
g5
sg16
g5
sg17
g5
sg18
g5
sg19
I139130
sg20
g5
sg21
g5
sg22
g5
sg23
g5
sg24
g5
sg25
I139130
sg26
I0
ssS'LINDHOLM TOD A'
p195
(dp196
g3
g5
sg4
I204075
sg6
I57727
sg7
I00
sg8
g5
sg9
S'tod.lindholm@enron.com'
p197
sg11
g5
sg12
g5
sg13
g5
sg14
g5
sg15
g5
sg16
I2630
sg17
g5
sg18
I200000
sg19
I3064208
sg20
g5
sg21
I175000
sg22
I514847
sg23
I236457
sg24
I875889
sg25
I2549361
sg26
I0
ssS'MEYER JEROME J'
p198
(dp199
g3
g5
sg4
g5
sg6
I2151
sg7
I00
sg8
I-38346
sg9
g5
sg11
g5
sg12
g5
sg13
g5
sg14
g5
sg15
g5
sg16
g5
sg17
I38346
sg18
g5
sg19
g5
sg20
g5
sg21
g5
sg22
g5
sg23
g5
sg24
I2151
sg25
g5
sg26
I0
ssS'LAY KENNETH L'
p200
(dp201
g3
I4273
sg4
I202911
sg6
I99832
sg7
I01
sg8
I-300000
sg9
S'kenneth.lay@enron.com'
p202
sg11
I123
sg12
g5
sg13
I2411
sg14
I81525000
sg15
I36
sg16
I10359729
sg17
g5
sg18
I7000000
sg19
I49110078
sg20
I16
sg21
I3600000
sg22
I14761694
sg23
I1072321
sg24
I103559793
sg25
I34348384
sg26
I5
ssS'BUTTS ROBERT H'
p203
(dp204
g3
g5
sg4
g5
sg6
I9410
sg7
I00
sg8
I-75000
sg9
S'bob.butts@enron.com'
p205
sg11
g5
sg12
g5
sg13
g5
sg14
g5
sg15
g5
sg16
I150656
sg17
g5
sg18
I750000
sg19
I417619
sg20
g5
sg21
I175000
sg22
I417619
sg23
I261516
sg24
I1271582
sg25
g5
sg26
I0
ssS'OLSON CINDY K'
p206
(dp207
g3
I1184
sg4
I77716
sg6
I63791
sg7
I00
sg8
g5
sg9
S'cindy.olson@enron.com'
p208
sg11
I20
sg12
g5
sg13
I856
sg14
g5
sg15
I52
sg16
I972
sg17
g5
sg18
I750000
sg19
I2606763
sg20
I15
sg21
I100000
sg22
I969729
sg23
I329078
sg24
I1321557
sg25
I1637034
sg26
I9
ssS'MCDONALD REBECCA'
p209
(dp210
g3
I894
sg4
g5
sg6
g5
sg7
I00
sg8
g5
sg9
S'rebecca.mcdonald@enron.com'
p211
sg11
I54
sg12
g5
sg13
I720
sg14
g5
sg15
I13
sg16
g5
sg17
g5
sg18
g5
sg19
I1691366
sg20
I1
sg21
g5
sg22
I934065
sg23
g5
sg24
g5
sg25
I757301
sg26
I3
ssS'CUMBERLAND MICHAEL S'
p212
(dp213
g3
g5
sg4
g5
sg6
I22344
sg7
I00
sg8
g5
sg9
g5
sg11
g5
sg12
g5
sg13
g5
sg14
g5
sg15
g5
sg16
I713
sg17
g5
sg18
I325000
sg19
I207940
sg20
g5
sg21
I275000
sg22
I207940
sg23
I184899
sg24
I807956
sg25
g5
sg26
I0
ssS'GAHN ROBERT S'
p214
(dp215
g3
g5
sg4
I73122
sg6
I50080
sg7
I00
sg8
I-1042
sg9
g5
sg11
g5
sg12
g5
sg13
g5
sg14
g5
sg15
g5
sg16
I76547
sg17
g5
sg18
I509870
sg19
I318607
sg20
g5
sg21
g5
sg22
I235370
sg23
I192008
sg24
I900585
sg25
I83237
sg26
I0
ssS'BADUM JAMES P'
p216
(dp217
g3
g5
sg4
I178980
sg6
I3486
sg7
I00
sg8
g5
sg9
g5
sg11
g5
sg12
g5
sg13
g5
sg14
g5
sg15
g5
sg16
g5
sg17
g5
sg18
g5
sg19
I257817
sg20
g5
sg21
g5
sg22
g5
sg23
g5
sg24
I182466
sg25
I257817
sg26
I0
ssS'HERMANN ROBERT J'
p218
(dp219
g3
g5
sg4
g5
sg6
I48357
sg7
I00
sg8
I-280000
sg9
S'robert.hermann@enron.com'
p220
sg11
g5
sg12
g5
sg13
g5
sg14
g5
sg15
g5
sg16
I416441
sg17
g5
sg18
I700000
sg19
I668132
sg20
g5
sg21
I150000
sg22
I480632
sg23
I262663
sg24
I1297461
sg25
I187500
sg26
I0
ssS'FALLON JAMES B'
p221
(dp222
g3
I1755
sg4
g5
sg6
I95924
sg7
I00
sg8
g5
sg9
S'jim.fallon@enron.com'
p223
sg11
I42
sg12
g5
sg13
I1604
sg14
g5
sg15
I75
sg16
I401481
sg17
g5
sg18
I2500000
sg19
I2332399
sg20
I37
sg21
I374347
sg22
I1392142
sg23
I304588
sg24
I3676340
sg25
I940257
sg26
I9
ssS'GATHMANN WILLIAM D'
p224
(dp225
g3
g5
sg4
g5
sg6
g5
sg7
I00
sg8
g5
sg9
g5
sg11
g5
sg12
I-72419
sg13
g5
sg14
g5
sg15
g5
sg16
g5
sg17
g5
sg18
g5
sg19
I1945360
sg20
g5
sg21
g5
sg22
I264013
sg23
g5
sg24
g5
sg25
I1753766
sg26
I0
ssS'HORTON STANLEY C'
p226
(dp227
g3
I2350
sg4
I3131860
sg6
g5
sg7
I00
sg8
g5
sg9
S'stanley.horton@enron.com'
p228
sg11
I44
sg12
g5
sg13
I1074
sg14
g5
sg15
I1073
sg16
g5
sg17
g5
sg18
g5
sg19
I7256648
sg20
I15
sg21
g5
sg22
I2046079
sg23
g5
sg24
I3131860
sg25
I5210569
sg26
I301
ssS'BOWEN JR RAYMOND M'
p229
(dp230
g3
I1858
sg4
g5
sg6
I65907
sg7
I01
sg8
I-833
sg9
S'raymond.bowen@enron.com'
p231
sg11
I140
sg12
g5
sg13
I1593
sg14
g5
sg15
I27
sg16
I1621
sg17
g5
sg18
I1350000
sg19
I252055
sg20
I15
sg21
I974293
sg22
I252055
sg23
I278601
sg24
I2669589
sg25
g5
sg26
I8
ssS'GILLIS JOHN'
p232
(dp233
g3
g5
sg4
g5
sg6
g5
sg7
I00
sg8
g5
sg9
g5
sg11
g5
sg12
g5
sg13
g5
sg14
g5
sg15
g5
sg16
g5
sg17
g5
sg18
g5
sg19
I85641
sg20
g5
sg21
g5
sg22
I75838
sg23
g5
sg24
g5
sg25
I9803
sg26
I0
ssS'FITZGERALD JAY L'
p234
(dp235
g3
I936
sg4
g5
sg6
I23870
sg7
I00
sg8
g5
sg9
S'jay.fitzgerald@enron.com'
p236
sg11
I1
sg12
g5
sg13
I723
sg14
g5
sg15
I16
sg16
I285414
sg17
g5
sg18
I350000
sg19
I1621236
sg20
I8
sg21
I556416
sg22
I956775
sg23
I199157
sg24
I1414857
sg25
I664461
sg26
I0
ssS'MORAN MICHAEL P'
p237
(dp238
g3
I672
sg4
g5
sg6
g5
sg7
I00
sg8
g5
sg9
S'michael.moran@enron.com'
p239
sg11
I0
sg12
g5
sg13
I127
sg14
g5
sg15
I19
sg16
g5
sg17
g5
sg18
g5
sg19
I221141
sg20
I0
sg21
g5
sg22
I161602
sg23
g5
sg24
g5
sg25
I59539
sg26
I3
ssS'REDMOND BRIAN L'
p240
(dp241
g3
I1671
sg4
g5
sg6
I14689
sg7
I00
sg8
g5
sg9
S'brian.redmond@enron.com'
p242
sg11
I204
sg12
g5
sg13
I1063
sg14
g5
sg15
I221
sg16
g5
sg17
g5
sg18
g5
sg19
I7890324
sg20
I49
sg21
g5
sg22
I381285
sg23
I96840
sg24
I111529
sg25
I7509039
sg26
I14
ssS'BAZELIDES PHILIP J'
p243
(dp244
g3
g5
sg4
I684694
sg6
g5
sg7
I00
sg8
g5
sg9
g5
sg11
g5
sg12
g5
sg13
g5
sg14
g5
sg15
g5
sg16
I874
sg17
g5
sg18
g5
sg19
I1599641
sg20
g5
sg21
I93750
sg22
g5
sg23
I80818
sg24
I860136
sg25
I1599641
sg26
I0
ssS'BELDEN TIMOTHY N'
p245
(dp246
g3
I7991
sg4
I2144013
sg6
I17355
sg7
I01
sg8
I-2334434
sg9
S'tim.belden@enron.com'
p247
sg11
I228
sg12
g5
sg13
I5521
sg14
g5
sg15
I484
sg16
I210698
sg17
g5
sg18
I5249999
sg19
I1110705
sg20
I108
sg21
g5
sg22
I157569
sg23
I213999
sg24
I5501630
sg25
I953136
sg26
I42
ssS'DIMICHELE RICHARD G'
p248
(dp249
g3
g5
sg4
g5
sg6
I35812
sg7
I00
sg8
g5
sg9
S'richard.dimichele@enron.com'
p250
sg11
g5
sg12
g5
sg13
g5
sg14
g5
sg15
g5
sg16
I374689
sg17
g5
sg18
I1000000
sg19
I8317782
sg20
g5
sg21
I694862
sg22
I126027
sg23
I262788
sg24
I2368151
sg25
I8191755
sg26
I0
ssS'DURAN WILLIAM D'
p251
(dp252
g3
I904
sg4
g5
sg6
I25785
sg7
I00
sg8
g5
sg9
S'w.duran@enron.com'
p253
sg11
I106
sg12
g5
sg13
I599
sg14
g5
sg15
I12
sg16
I1568
sg17
g5
sg18
I750000
sg19
I1640910
sg20
I3
sg21
I1105218
sg22
I189041
sg23
I210692
sg24
I2093263
sg25
I1451869
sg26
I0
ssS'THORN TERENCE H'
p254
(dp255
g3
I266
sg4
I16586
sg6
I46145
sg7
I00
sg8
g5
sg9
S'terence.thorn@enron.com'
p256
sg11
I0
sg12
g5
sg13
I73
sg14
g5
sg15
I41
sg16
I426629
sg17
g5
sg18
g5
sg19
I4817796
sg20
I0
sg21
I200000
sg22
I365320
sg23
I222093
sg24
I911453
sg25
I4452476
sg26
I0
ssS'FASTOW ANDREW S'
p257
(dp258
g3
g5
sg4
g5
sg6
I55921
sg7
I01
sg8
I-1386055
sg9
S'andrew.fastow@enron.com'
p259
sg11
g5
sg12
g5
sg13
g5
sg14
g5
sg15
g5
sg16
I277464
sg17
g5
sg18
I1300000
sg19
I1794412
sg20
g5
sg21
I1736055
sg22
I1794412
sg23
I440698
sg24
I2424083
sg25
g5
sg26
I0
ssS'FOY JOE'
p260
(dp261
g3
I57
sg4
I181755
sg6
g5
sg7
I00
sg8
g5
sg9
S'tracy.foy@enron.com'
p262
sg11
I0
sg12
g5
sg13
I2
sg14
g5
sg15
I13
sg16
g5
sg17
g5
sg18
g5
sg19
I343434
sg20
I0
sg21
g5
sg22
g5
sg23
g5
sg24
I181755
sg25
I343434
sg26
I0
ssS'CALGER CHRISTOPHER F'
p263
(dp264
g3
I2598
sg4
g5
sg6
I35818
sg7
I01
sg8
I-262500
sg9
S'christopher.calger@enron.com'
p265
sg11
I199
sg12
g5
sg13
I2188
sg14
g5
sg15
I144
sg16
I486
sg17
g5
sg18
I1250000
sg19
I126027
sg20
I25
sg21
I375304
sg22
I126027
sg23
I240189
sg24
I1639297
sg25
g5
sg26
I3
ssS'RICE KENNETH D'
p266
(dp267
g3
I905
sg4
g5
sg6
I46950
sg7
I01
sg8
I-3504386
sg9
S'ken.rice@enron.com'
p268
sg11
I42
sg12
g5
sg13
I864
sg14
g5
sg15
I18
sg16
I174839
sg17
g5
sg18
I1750000
sg19
I22542539
sg20
I4
sg21
I1617011
sg22
I2748364
sg23
I420636
sg24
I505050
sg25
I19794175
sg26
I25
ssS'KAMINSKI WINCENTY J'
p269
(dp270
g3
I4607
sg4
g5
sg6
I83585
sg7
I00
sg8
g5
sg9
S'vince.kaminski@enron.com'
p271
sg11
I41
sg12
g5
sg13
I583
sg14
g5
sg15
I14368
sg16
I4669
sg17
g5
sg18
I400000
sg19
I976037
sg20
I171
sg21
I323466
sg22
I126027
sg23
I275101
sg24
I1086821
sg25
I850010
sg26
I826
ssS'LOCKHART EUGENE E'
p272
(dp273
g3
g5
sg4
g5
sg6
g5
sg7
I00
sg8
g5
sg9
g5
sg11
g5
sg12
g5
sg13
g5
sg14
g5
sg15
g5
sg16
g5
sg17
g5
sg18
g5
sg19
g5
sg20
g5
sg21
g5
sg22
g5
sg23
g5
sg24
g5
sg25
g5
sg26
I0
ssS'COX DAVID'
p274
(dp275
g3
I102
sg4
g5
sg6
I27861
sg7
I00
sg8
I-41250
sg9
S'chip.cox@enron.com'
p276
sg11
I0
sg12
g5
sg13
I71
sg14
g5
sg15
I33
sg16
I494
sg17
g5
sg18
I800000
sg19
I495633
sg20
I4
sg21
g5
sg22
I378082
sg23
I314288
sg24
I1101393
sg25
I117551
sg26
I0
ssS'OVERDYKE JR JERE C'
p277
(dp278
g3
g5
sg4
g5
sg6
I18834
sg7
I00
sg8
g5
sg9
S'jere.overdyke@enron.com'
p279
sg11
g5
sg12
g5
sg13
g5
sg14
g5
sg15
g5
sg16
I176
sg17
g5
sg18
g5
sg19
I7307594
sg20
g5
sg21
I135836
sg22
I2041016
sg23
I94941
sg24
I249787
sg25
I5266578
sg26
I0
ssS'PEREIRA PAULO V. FERRAZ'
p280
(dp281
g3
g5
sg4
g5
sg6
I27942
sg7
I00
sg8
I-101250
sg9
g5
sg11
g5
sg12
g5
sg13
g5
sg14
g5
sg15
g5
sg16
g5
sg17
I101250
sg18
g5
sg19
g5
sg20
g5
sg21
g5
sg22
g5
sg23
g5
sg24
I27942
sg25
g5
sg26
I0
ssS'STABLER FRANK'
p282
(dp283
g3
g5
sg4
g5
sg6
I16514
sg7
I00
sg8
g5
sg9
S'frank.stabler@enron.com'
p284
sg11
g5
sg12
g5
sg13
g5
sg14
g5
sg15
g5
sg16
I356071
sg17
g5
sg18
I500000
sg19
I511734
sg20
g5
sg21
g5
sg22
I511734
sg23
I239502
sg24
I1112087
sg25
g5
sg26
I0
ssS'SKILLING JEFFREY K'
p285
(dp286
g3
I3627
sg4
g5
sg6
I29336
sg7
I01
sg8
g5
sg9
S'jeff.skilling@enron.com'
p287
sg11
I88
sg12
g5
sg13
I2042
sg14
g5
sg15
I108
sg16
I22122
sg17
g5
sg18
I5600000
sg19
I26093672
sg20
I30
sg21
I1920000
sg22
I6843672
sg23
I1111258
sg24
I8682716
sg25
I19250000
sg26
I31
ssS'BLAKE JR. NORMAN P'
p288
(dp289
g3
g5
sg4
g5
sg6
I1279
sg7
I00
sg8
I-113784
sg9
g5
sg11
g5
sg12
g5
sg13
g5
sg14
g5
sg15
g5
sg16
g5
sg17
I113784
sg18
g5
sg19
g5
sg20
g5
sg21
g5
sg22
g5
sg23
g5
sg24
I1279
sg25
g5
sg26
I0
ssS'SHERRICK JEFFREY B'
p290
(dp291
g3
I613
sg4
g5
sg6
g5
sg7
I00
sg8
g5
sg9
S'jeffrey.sherrick@enron.com'
p292
sg11
I39
sg12
g5
sg13
I583
sg14
g5
sg15
I25
sg16
g5
sg17
g5
sg18
g5
sg19
I1832468
sg20
I18
sg21
g5
sg22
I405999
sg23
g5
sg24
g5
sg25
I1426469
sg26
I7
ssS'PRENTICE JAMES'
p293
(dp294
g3
g5
sg4
I564348
sg6
g5
sg7
I00
sg8
g5
sg9
S'james.prentice@enron.com'
p295
sg11
g5
sg12
g5
sg13
g5
sg14
g5
sg15
g5
sg16
g5
sg17
g5
sg18
g5
sg19
I1095040
sg20
g5
sg21
g5
sg22
I208809
sg23
g5
sg24
I564348
sg25
I886231
sg26
I0
ssS'GRAY RODNEY'
p296
(dp297
g3
g5
sg4
I93585
sg6
g5
sg7
I00
sg8
g5
sg9
g5
sg11
g5
sg12
g5
sg13
g5
sg14
g5
sg15
g5
sg16
I680833
sg17
g5
sg18
g5
sg19
g5
sg20
g5
sg21
I365625
sg22
g5
sg23
I6615
sg24
I1146658
sg25
g5
sg26
I0
ssS'UMANOFF ADAM S'
p298
(dp299
g3
I111
sg4
g5
sg6
I53122
sg7
I00
sg8
g5
sg9
S'adam.umanoff@enron.com'
p300
sg11
I12
sg12
g5
sg13
I41
sg14
g5
sg15
I18
sg16
g5
sg17
g5
sg18
I788750
sg19
g5
sg20
I0
sg21
g5
sg22
g5
sg23
I288589
sg24
I1130461
sg25
g5
sg26
I3
ssS'KEAN STEVEN J'
p301
(dp302
g3
I12754
sg4
g5
sg6
I41953
sg7
I00
sg8
g5
sg9
S'steven.kean@enron.com'
p303
sg11
I140
sg12
g5
sg13
I3639
sg14
g5
sg15
I6759
sg16
I1231
sg17
g5
sg18
I1000000
sg19
I6153642
sg20
I387
sg21
I300000
sg22
I4131594
sg23
I404338
sg24
I1747522
sg25
I2022048
sg26
I2281
ssS'FOWLER PEGGY'
p304
(dp305
g3
I517
sg4
g5
sg6
g5
sg7
I00
sg8
g5
sg9
S'kulvinder.fowler@enron.com'
p306
sg11
I0
sg12
g5
sg13
I10
sg14
g5
sg15
I36
sg16
g5
sg17
g5
sg18
g5
sg19
I1884748
sg20
I0
sg21
g5
sg22
I560170
sg23
g5
sg24
g5
sg25
I1324578
sg26
I0
ssS'WASAFF GEORGE'
p307
(dp308
g3
I400
sg4
I831299
sg6
g5
sg7
I00
sg8
I-583325
sg9
S'george.wasaff@enron.com'
p309
sg11
I22
sg12
g5
sg13
I337
sg14
g5
sg15
I30
sg16
I1425
sg17
g5
sg18
I325000
sg19
I2056427
sg20
I7
sg21
I200000
sg22
I388167
sg23
I259996
sg24
I1034395
sg25
I1668260
sg26
I5
ssS'WHITE JR THOMAS E'
p310
(dp311
g3
g5
sg4
g5
sg6
I81353
sg7
I00
sg8
g5
sg9
S'thomas.white@enron.com'
p312
sg11
g5
sg12
g5
sg13
g5
sg14
g5
sg15
g5
sg16
I1085463
sg17
g5
sg18
I450000
sg19
I15144123
sg20
g5
sg21
g5
sg22
I13847074
sg23
I317543
sg24
I1934359
sg25
I1297049
sg26
I0
ssS'CHRISTODOULOU DIOMEDES'
p313
(dp314
g3
g5
sg4
g5
sg6
g5
sg7
I00
sg8
g5
sg9
S'diomedes.christodoulou@enron.com'
p315
sg11
g5
sg12
g5
sg13
g5
sg14
g5
sg15
g5
sg16
g5
sg17
g5
sg18
g5
sg19
I6077885
sg20
g5
sg21
g5
sg22
I950730
sg23
g5
sg24
g5
sg25
I5127155
sg26
I0
ssS'ALLEN PHILLIP K'
p316
(dp317
g3
I2902
sg4
I2869717
sg6
I13868
sg7
I00
sg8
I-3081055
sg9
S'phillip.allen@enron.com'
p318
sg11
I47
sg12
I-126027
sg13
I1407
sg14
g5
sg15
I2195
sg16
I152
sg17
g5
sg18
I4175000
sg19
I1729541
sg20
I65
sg21
I304805
sg22
I126027
sg23
I201955
sg24
I4484442
sg25
I1729541
sg26
I60
ssS'SHARP VICTORIA T'
p319
(dp320
g3
I3136
sg4
I187469
sg6
I116337
sg7
I00
sg8
g5
sg9
S'vicki.sharp@enron.com'
p321
sg11
I24
sg12
g5
sg13
I2477
sg14
g5
sg15
I136
sg16
I2401
sg17
g5
sg18
I600000
sg19
I494136
sg20
I6
sg21
I422158
sg22
I213063
sg23
I248146
sg24
I1576511
sg25
I281073
sg26
I25
ssS'JAEDICKE ROBERT'
p322
(dp323
g3
g5
sg4
g5
sg6
g5
sg7
I00
sg8
I-25000
sg9
g5
sg11
g5
sg12
I-44093
sg13
g5
sg14
g5
sg15
g5
sg16
g5
sg17
I108750
sg18
g5
sg19
I431750
sg20
g5
sg21
g5
sg22
I44093
sg23
g5
sg24
I83750
sg25
I431750
sg26
I0
ssS'WINOKUR JR. HERBERT S'
p324
(dp325
g3
g5
sg4
g5
sg6
I1413
sg7
I00
sg8
I-25000
sg9
g5
sg11
g5
sg12
g5
sg13
g5
sg14
g5
sg15
g5
sg16
g5
sg17
I108579
sg18
g5
sg19
g5
sg20
g5
sg21
g5
sg22
g5
sg23
g5
sg24
I84992
sg25
g5
sg26
I0
ssS'BROWN MICHAEL'
p326
(dp327
g3
I1486
sg4
g5
sg6
I49288
sg7
I00
sg8
g5
sg9
S'michael.brown@enron.com'
p328
sg11
I13
sg12
g5
sg13
I761
sg14
g5
sg15
I41
sg16
g5
sg17
g5
sg18
g5
sg19
g5
sg20
I1
sg21
g5
sg22
g5
sg23
g5
sg24
I49288
sg25
g5
sg26
I2
ssS'MCCLELLAN GEORGE'
p329
(dp330
g3
I1744
sg4
g5
sg6
I228763
sg7
I00
sg8
I-125000
sg9
S'george.mcclellan@enron.com'
p331
sg11
I52
sg12
g5
sg13
I1469
sg14
g5
sg15
I49
sg16
I51587
sg17
g5
sg18
I900000
sg19
I947861
sg20
I0
sg21
g5
sg22
I441096
sg23
I263413
sg24
I1318763
sg25
I506765
sg26
I6
ssS'HUGHES JAMES A'
p332
(dp333
g3
I719
sg4
g5
sg6
g5
sg7
I00
sg8
g5
sg9
S'james.hughes@enron.com'
p334
sg11
I35
sg12
g5
sg13
I589
sg14
g5
sg15
I34
sg16
g5
sg17
g5
sg18
g5
sg19
I1118394
sg20
I5
sg21
g5
sg22
I363428
sg23
g5
sg24
g5
sg25
I754966
sg26
I8
ssS'REYNOLDS LAWRENCE'
p335
(dp336
g3
g5
sg4
I51365
sg6
I8409
sg7
I00
sg8
I-200000
sg9
g5
sg11
g5
sg12
I-140264
sg13
g5
sg14
g5
sg15
g5
sg16
I202052
sg17
g5
sg18
I100000
sg19
I4221891
sg20
g5
sg21
I156250
sg22
I201483
sg23
I76399
sg24
I394475
sg25
I4160672
sg26
I0
ssS'PICKERING MARK R'
p337
(dp338
g3
I898
sg4
g5
sg6
I31653
sg7
I00
sg8
g5
sg9
S'mark.pickering@enron.com'
p339
sg11
I7
sg12
g5
sg13
I728
sg14
I400000
sg15
I67
sg16
g5
sg17
g5
sg18
I300000
sg19
I28798
sg20
I0
sg21
g5
sg22
g5
sg23
I655037
sg24
I1386690
sg25
I28798
sg26
I1
ssS'BHATNAGAR SANJAY'
p340
(dp341
g3
I523
sg4
g5
sg6
g5
sg7
I00
sg8
g5
sg9
S'sanjay.bhatnagar@enron.com'
p342
sg11
I0
sg12
I15456290
sg13
I463
sg14
g5
sg15
I29
sg16
I137864
sg17
I137864
sg18
g5
sS'total_stock_value'
p343
S'NaN'
p344
sg20
I1
sg21
g5
sg22
I-2604490
sg23
g5
sg24
I15456290
sg25
I2604490
sg26
I14
ssS'CARTER REBECCA C'
p345
(dp346
g3
I312
sg4
g5
sg6
g5
sg7
I00
sg8
I-159792
sg9
S'rebecca.carter@enron.com'
p347
sg11
I29
sg12
I-307301
sg13
I196
sg14
g5
sg15
I15
sg16
I540
sg17
g5
sg18
I300000
sg19
g5
sg20
I7
sg21
I75000
sg22
I307301
sg23
I261809
sg24
I477557
sg25
g5
sg26
I0
ssS'BUCHANAN HAROLD G'
p348
(dp349
g3
I1088
sg4
g5
sg6
I600
sg7
I00
sg8
g5
sg9
S'john.buchanan@enron.com'
p350
sg11
I0
sg12
g5
sg13
I23
sg14
g5
sg15
I125
sg16
I1215
sg17
g5
sg18
I500000
sg19
I1014505
sg20
I0
sg21
I304805
sg22
I189041
sg23
I248017
sg24
I1054637
sg25
I825464
sg26
I0
ssS'YEAP SOON'
p351
(dp352
g3
g5
sg4
g5
sg6
I55097
sg7
I00
sg8
g5
sg9
g5
sg11
g5
sg12
g5
sg13
g5
sg14
g5
sg15
g5
sg16
g5
sg17
g5
sg18
g5
sg19
I192758
sg20
g5
sg21
g5
sg22
g5
sg23
g5
sg24
I55097
sg25
I192758
sg26
I0
ssS'MURRAY JULIA H'
p353
(dp354
g3
I2192
sg4
g5
sg6
I57580
sg7
I00
sg8
g5
sg9
S'julia.murray@enron.com'
p355
sg11
I11
sg12
g5
sg13
I395
sg14
g5
sg15
I45
sg16
I330
sg17
g5
sg18
I400000
sg19
I597461
sg20
I2
sg21
I125000
sg22
I196983
sg23
I229284
sg24
I812194
sg25
I400478
sg26
I7
ssS'GARLAND C KEVIN'
p356
(dp357
g3
I209
sg4
g5
sg6
I48405
sg7
I00
sg8
g5
sg9
S'kevin.garland@enron.com'
p358
sg11
I10
sg12
g5
sg13
I178
sg14
g5
sg15
I44
sg16
I60814
sg17
g5
sg18
I850000
sg19
I896153
sg20
I27
sg21
I375304
sg22
I259907
sg23
I231946
sg24
I1566469
sg25
I636246
sg26
I13
ssS'DODSON KEITH'
p359
(dp360
g3
I176
sg4
g5
sg6
I28164
sg7
I00
sg8
g5
sg9
S'keith.dodson@enron.com'
p361
sg11
I10
sg12
g5
sg13
I114
sg14
g5
sg15
I14
sg16
I774
sg17
g5
sg18
I70000
sg19
g5
sg20
I3
sg21
g5
sg22
g5
sg23
I221003
sg24
I319941
sg25
g5
sg26
I0
ssS'YEAGER F SCOTT'
p362
(dp363
g3
g5
sg4
g5
sg6
I53947
sg7
I01
sg8
g5
sg9
S'scott.yeager@enron.com'
p364
sg11
g5
sg12
g5
sg13
g5
sg14
g5
sg15
g5
sg16
I147950
sg17
g5
sg18
g5
sg19
I11884758
sg20
g5
sg21
g5
sg22
I3576206
sg23
I158403
sg24
I360300
sg25
I8308552
sg26
I0
ssS'HIRKO JOSEPH'
p365
(dp366
g3
g5
sg4
I10259
sg6
I77978
sg7
I01
sg8
g5
sg9
S'joe.hirko@enron.com'
p367
sg11
g5
sg12
g5
sg13
g5
sg14
g5
sg15
g5
sg16
I2856
sg17
g5
sg18
g5
sg19
I30766064
sg20
g5
sg21
g5
sg22
g5
sg23
g5
sg24
I91093
sg25
I30766064
sg26
I0
ssS'DIETRICH JANET R'
p368
(dp369
g3
I2572
sg4
g5
sg6
I3475
sg7
I00
sg8
g5
sg9
S'janet.dietrich@enron.com'
p370
sg11
I305
sg12
g5
sg13
I1902
sg14
g5
sg15
I63
sg16
I473
sg17
g5
sg18
I600000
sg19
I1865087
sg20
I14
sg21
I556416
sg22
I315068
sg23
I250100
sg24
I1410464
sg25
I1550019
sg26
I15
ssS'DERRICK JR. JAMES V'
p371
(dp372
g3
I2181
sg4
g5
sg6
I51124
sg7
I00
sg8
I-1284000
sg9
S'james.derrick@enron.com'
p373
sg11
I64
sg12
I-1787380
sg13
I1401
sg14
g5
sg15
I909
sg16
I7482
sg17
g5
sg18
I800000
sg19
I8831913
sg20
I20
sg21
I484000
sg22
I1787380
sg23
I492375
sg24
I550981
sg25
I8831913
sg26
I319
ssS'FREVERT MARK A'
p374
(dp375
g3
I3275
sg4
I6426990
sg6
I86987
sg7
I00
sg8
I-3367011
sg9
S'mark.frevert@enron.com'
p376
sg11
I242
sg12
g5
sg13
I2979
sg14
I2000000
sg15
I21
sg16
I7427621
sg17
g5
sg18
I2000000
sg19
I14622185
sg20
I6
sg21
I1617011
sg22
I4188667
sg23
I1060932
sg24
I17252530
sg25
I10433518
sg26
I4
ssS'PAI LOU L'
p377
(dp378
g3
g5
sg4
g5
sg6
I32047
sg7
I00
sg8
g5
sg9
S'lou.pai@enron.com'
p379
sg11
g5
sg12
g5
sg13
g5
sg14
g5
sg15
g5
sg16
I1829457
sg17
g5
sg18
I1000000
sg19
I23817930
sg20
g5
sg21
g5
sg22
I8453763
sg23
I261879
sg24
I3123383
sg25
I15364167
sg26
I0
ssS'HAYSLETT RODERICK J'
p380
(dp381
g3
I2649
sg4
g5
sg6
g5
sg7
I00
sg8
g5
sg9
S'rod.hayslett@enron.com'
p382
sg11
I35
sg12
g5
sg13
I571
sg14
g5
sg15
I1061
sg16
g5
sg17
g5
sg18
g5
sg19
I346663
sg20
I38
sg21
g5
sg22
I346663
sg23
g5
sg24
g5
sg25
g5
sg26
I222
ssS'BAY FRANKLIN R'
p383
(dp384
g3
g5
sg4
I260455
sg6
I129142
sg7
I00
sg8
I-201641
sg9
S'frank.bay@enron.com'
p385
sg11
g5
sg12
I-82782
sg13
g5
sg14
g5
sg15
g5
sg16
I69
sg17
g5
sg18
I400000
sg19
I63014
sg20
g5
sg21
g5
sg22
I145796
sg23
I239671
sg24
I827696
sg25
g5
sg26
I0
ssS'MCCARTY DANNY J'
p386
(dp387
g3
I1433
sg4
g5
sg6
g5
sg7
I00
sg8
g5
sg9
S'danny.mccarty@enron.com'
p388
sg11
I25
sg12
g5
sg13
I508
sg14
g5
sg15
I215
sg16
g5
sg17
g5
sg18
g5
sg19
I758931
sg20
I2
sg21
g5
sg22
I94556
sg23
g5
sg24
g5
sg25
I664375
sg26
I16
ssS'FUGH JOHN L'
p389
(dp390
g3
g5
sg4
I50591
sg6
g5
sg7
I00
sg8
g5
sg9
g5
sg11
g5
sg12
g5
sg13
g5
sg14
g5
sg15
g5
sg16
g5
sg17
g5
sg18
g5
sg19
I176378
sg20
g5
sg21
g5
sg22
g5
sg23
g5
sg24
I50591
sg25
I176378
sg26
I0
ssS'SCRIMSHAW MATTHEW'
p391
(dp392
g3
g5
sg4
g5
sg6
g5
sg7
I00
sg8
g5
sg9
S'matthew.scrimshaw@enron.com'
p393
sg11
g5
sg12
g5
sg13
g5
sg14
g5
sg15
g5
sg16
g5
sg17
g5
sg18
g5
sg19
I759557
sg20
g5
sg21
g5
sg22
g5
sg23
g5
sg24
g5
sg25
I759557
sg26
I0
ssS'KOENIG MARK E'
p394
(dp395
g3
I2374
sg4
g5
sg6
I127017
sg7
I01
sg8
g5
sg9
S'mark.koenig@enron.com'
p396
sg11
I53
sg12
g5
sg13
I2271
sg14
g5
sg15
I61
sg16
I150458
sg17
g5
sg18
I700000
sg19
I1920055
sg20
I15
sg21
I300000
sg22
I1248318
sg23
I309946
sg24
I1587421
sg25
I671737
sg26
I8
ssS'SAVAGE FRANK'
p397
(dp398
g3
g5
sg4
g5
sg6
g5
sg7
I00
sg8
I-121284
sg9
g5
sg11
g5
sg12
g5
sg13
g5
sg14
g5
sg15
g5
sg16
g5
sg17
I125034
sg18
g5
sg19
g5
sg20
g5
sg21
g5
sg22
g5
sg23
g5
sg24
I3750
sg25
g5
sg26
I0
ssS'IZZO LAWRENCE L'
p399
(dp400
g3
I496
sg4
g5
sg6
I28093
sg7
I00
sg8
g5
sg9
S'larry.izzo@enron.com'
p401
sg11
I28
sg12
g5
sg13
I437
sg14
g5
sg15
I19
sg16
I1553729
sg17
g5
sg18
g5
sg19
I5819980
sg20
I5
sg21
I312500
sg22
I3654808
sg23
I85274
sg24
I1979596
sg25
I2165172
sg26
I0
ssS'TILNEY ELIZABETH A'
p402
(dp403
g3
I460
sg4
g5
sg6
g5
sg7
I00
sg8
I-575000
sg9
S'elizabeth.tilney@enron.com'
p404
sg11
I10
sg12
g5
sg13
I379
sg14
g5
sg15
I19
sg16
I152055
sg17
g5
sg18
I300000
sg19
I1168042
sg20
I11
sg21
I275000
sg22
I576792
sg23
I247338
sg24
I399393
sg25
I591250
sg26
I0
ssS'MARTIN AMANDA K'
p405
(dp406
g3
I1522
sg4
I85430
sg6
I8211
sg7
I00
sg8
g5
sg9
S'a..martin@enron.com'
p407
sg11
I8
sg12
g5
sg13
I477
sg14
g5
sg15
I230
sg16
I2818454
sg17
g5
sg18
g5
sg19
I2070306
sg20
I0
sg21
I5145434
sg22
g5
sg23
I349487
sg24
I8407016
sg25
I2070306
sg26
I5
ssS'BUY RICHARD B'
p408
(dp409
g3
I3523
sg4
I649584
sg6
g5
sg7
I00
sg8
I-694862
sg9
S'rick.buy@enron.com'
p410
sg11
I156
sg12
g5
sg13
I2333
sg14
g5
sg15
I1053
sg16
I400572
sg17
g5
sg18
I900000
sg19
I3444470
sg20
I71
sg21
I769862
sg22
I901657
sg23
I330546
sg24
I2355702
sg25
I2542813
sg26
I310
ssS'GRAMM WENDY L'
p411
(dp412
g3
g5
sg4
g5
sg6
g5
sg7
I00
sg8
g5
sg9
g5
sg11
g5
sg12
g5
sg13
g5
sg14
g5
sg15
g5
sg16
g5
sg17
I119292
sg18
g5
sg19
g5
sg20
g5
sg21
g5
sg22
g5
sg23
g5
sg24
I119292
sg25
g5
sg26
I0
ssS'CAUSEY RICHARD A'
p413
(dp414
g3
I1892
sg4
g5
sg6
I30674
sg7
I01
sg8
I-235000
sg9
S'richard.causey@enron.com'
p415
sg11
I58
sg12
g5
sg13
I1585
sg14
g5
sg15
I49
sg16
I307895
sg17
g5
sg18
I1000000
sg19
I2502063
sg20
I12
sg21
I350000
sg22
I2502063
sg23
I415189
sg24
I1868758
sg25
g5
sg26
I42
ssS'TAYLOR MITCHELL S'
p416
(dp417
g3
I533
sg4
I227449
sg6
g5
sg7
I00
sg8
g5
sg9
S'mitchell.taylor@enron.com'
p418
sg11
I0
sg12
g5
sg13
I300
sg14
g5
sg15
I29
sg16
g5
sg17
g5
sg18
I600000
sg19
I3745048
sg20
I0
sg21
g5
sg22
I563798
sg23
I265214
sg24
I1092663
sg25
I3181250
sg26
I0
ssS'DONAHUE JR JEFFREY M'
p419
(dp420
g3
I865
sg4
g5
sg6
I96268
sg7
I00
sg8
I-300000
sg9
S'jeff.donahue@enron.com'
p421
sg11
I188
sg12
g5
sg13
I772
sg14
g5
sg15
I22
sg16
I891
sg17
g5
sg18
I800000
sg19
I1080988
sg20
I11
sg21
g5
sg22
I315068
sg23
I278601
sg24
I875760
sg25
I765920
sg26
I0
ssS'GLISAN JR BEN F'
p422
(dp423
g3
I873
sg4
g5
sg6
I125978
sg7
I01
sg8
g5
sg9
S'ben.glisan@enron.com'
p424
sg11
I52
sg12
g5
sg13
I874
sg14
g5
sg15
I16
sg16
I200308
sg17
g5
sg18
I600000
sg19
I778546
sg20
I6
sg21
I71023
sg22
I393818
sg23
I274975
sg24
I1272284
sg25
I384728
sg26
I38
ss.